target datalayout = "e-m:e-p270:32:32-p271:32:32-p272:64:64-i64:64-i128:128-f80:128-n8:16:32:64-S128"
target triple = "x86_64-pc-linux-gnu"

%struct._lv_arc_t = type { %struct._lv_obj_t, i32, float, float, float, float, i32, i32, i32, i8, i32, i32, float, i16 }
%struct._lv_obj_t = type { ptr, ptr, ptr, ptr, ptr, %struct.lv_area_t, i32, i16, i16 }
%struct.lv_area_t = type { i32, i32, i32, i32 }

; Function Attrs: nounwind uwtable
define internal void @lv_arc_constructor(ptr noundef %0, ptr noundef %1) #0 {
  %3 = alloca ptr, align 8
  %4 = alloca ptr, align 8
  %5 = alloca ptr, align 8
  store ptr %0, ptr %3, align 8, !tbaa !3
  store ptr %1, ptr %4, align 8, !tbaa !8
  call void @llvm.lifetime.start.p0(i64 8, ptr %5) #5
  %6 = load ptr, ptr %4, align 8, !tbaa !8
  store ptr %6, ptr %5, align 8, !tbaa !10
  %7 = load ptr, ptr %5, align 8, !tbaa !10
  %8 = getelementptr inbounds nuw %struct._lv_arc_t, ptr %7, i32 0, i32 1
  store i32 0, ptr %8, align 8, !tbaa !12
  %9 = load ptr, ptr %5, align 8, !tbaa !10
  %10 = getelementptr inbounds nuw %struct._lv_arc_t, ptr %9, i32 0, i32 4
  store float 1.350000e+02, ptr %10, align 4, !tbaa !21
  %11 = load ptr, ptr %5, align 8, !tbaa !10
  %12 = getelementptr inbounds nuw %struct._lv_arc_t, ptr %11, i32 0, i32 5
  store float 4.500000e+01, ptr %12, align 8, !tbaa !22
  %13 = load ptr, ptr %5, align 8, !tbaa !10
  %14 = getelementptr inbounds nuw %struct._lv_arc_t, ptr %13, i32 0, i32 2
  store float 1.350000e+02, ptr %14, align 4, !tbaa !23
  %15 = load ptr, ptr %5, align 8, !tbaa !10
  %16 = getelementptr inbounds nuw %struct._lv_arc_t, ptr %15, i32 0, i32 3
  store float 2.700000e+02, ptr %16, align 8, !tbaa !24
  %17 = load ptr, ptr %5, align 8, !tbaa !10
  %18 = getelementptr inbounds nuw %struct._lv_arc_t, ptr %17, i32 0, i32 9
  %19 = load i8, ptr %18, align 8
  %20 = and i8 %19, -7
  %21 = or i8 %20, 0
  store i8 %21, ptr %18, align 8
  %22 = load ptr, ptr %5, align 8, !tbaa !10
  %23 = getelementptr inbounds nuw %struct._lv_arc_t, ptr %22, i32 0, i32 6
  store i32 -32768, ptr %23, align 4, !tbaa !25
  %24 = load ptr, ptr %5, align 8, !tbaa !10
  %25 = getelementptr inbounds nuw %struct._lv_arc_t, ptr %24, i32 0, i32 9
  %26 = load i8, ptr %25, align 8
  %27 = and i8 %26, -9
  %28 = or i8 %27, 8
  store i8 %28, ptr %25, align 8
  %29 = load ptr, ptr %5, align 8, !tbaa !10
  %30 = getelementptr inbounds nuw %struct._lv_arc_t, ptr %29, i32 0, i32 7
  store i32 0, ptr %30, align 8, !tbaa !26
  %31 = load ptr, ptr %5, align 8, !tbaa !10
  %32 = getelementptr inbounds nuw %struct._lv_arc_t, ptr %31, i32 0, i32 8
  store i32 100, ptr %32, align 4, !tbaa !27
  %33 = load ptr, ptr %5, align 8, !tbaa !10
  %34 = getelementptr inbounds nuw %struct._lv_arc_t, ptr %33, i32 0, i32 9
  %35 = load i8, ptr %34, align 8
  %36 = and i8 %35, -2
  %37 = or i8 %36, 0
  store i8 %37, ptr %34, align 8
  %38 = load ptr, ptr %5, align 8, !tbaa !10
  %39 = getelementptr inbounds nuw %struct._lv_arc_t, ptr %38, i32 0, i32 10
  store i32 720, ptr %39, align 4, !tbaa !28
  %40 = call i32 @lv_tick_get()
  %41 = load ptr, ptr %5, align 8, !tbaa !10
  %42 = getelementptr inbounds nuw %struct._lv_arc_t, ptr %41, i32 0, i32 11
  store i32 %40, ptr %42, align 8, !tbaa !29
  %43 = load ptr, ptr %5, align 8, !tbaa !10
  %44 = getelementptr inbounds nuw %struct._lv_arc_t, ptr %43, i32 0, i32 3
  %45 = load float, ptr %44, align 8, !tbaa !24
  %46 = load ptr, ptr %5, align 8, !tbaa !10
  %47 = getelementptr inbounds nuw %struct._lv_arc_t, ptr %46, i32 0, i32 12
  store float %45, ptr %47, align 4, !tbaa !30
  %48 = load ptr, ptr %5, align 8, !tbaa !10
  %49 = getelementptr inbounds nuw %struct._lv_arc_t, ptr %48, i32 0, i32 9
  %50 = load i8, ptr %49, align 8
  %51 = and i8 %50, -17
  %52 = or i8 %51, 0
  store i8 %52, ptr %49, align 8
  %53 = load ptr, ptr %4, align 8, !tbaa !8
  call void @lv_obj_add_flag(ptr noundef %53, i32 noundef 2)
  %54 = load ptr, ptr %4, align 8, !tbaa !8
  call void @lv_obj_remove_flag(ptr noundef %54, i32 noundef 784)
  %55 = load ptr, ptr %4, align 8, !tbaa !8
  call void @lv_obj_set_ext_click_area(ptr noundef %55, i32 noundef 13)
  call void @llvm.lifetime.end.p0(i64 8, ptr %5) #5
  ret void
}