; Function Attrs: nounwind uwtable
define internal void @lv_arc_constructor(ptr readnone captures(none) %0, ptr noundef initializes((64, 96), (100, 112)) %1) #0 {
  %3 = getelementptr inbounds nuw i8, ptr %1, i64 64
  store i32 0, ptr %3, align 8, !tbaa !3
  %4 = getelementptr inbounds nuw i8, ptr %1, i64 76
  store float 1.350000e+02, ptr %4, align 4, !tbaa !17
  %5 = getelementptr inbounds nuw i8, ptr %1, i64 80
  store float 4.500000e+01, ptr %5, align 8, !tbaa !18
  %6 = getelementptr inbounds nuw i8, ptr %1, i64 68
  store float 1.350000e+02, ptr %6, align 4, !tbaa !19
  %7 = getelementptr inbounds nuw i8, ptr %1, i64 72
  store float 2.700000e+02, ptr %7, align 8, !tbaa !20
  %8 = getelementptr inbounds nuw i8, ptr %1, i64 96
  %9 = load i8, ptr %8, align 8
  %10 = getelementptr inbounds nuw i8, ptr %1, i64 84
  store i32 -32768, ptr %10, align 4, !tbaa !21
  %11 = getelementptr inbounds nuw i8, ptr %1, i64 88
  store i32 0, ptr %11, align 8, !tbaa !22
  %12 = getelementptr inbounds nuw i8, ptr %1, i64 92
  store i32 100, ptr %12, align 4, !tbaa !23
  %13 = and i8 %9, -16
  %14 = or disjoint i8 %13, 8
  store i8 %14, ptr %8, align 8
  %15 = getelementptr inbounds nuw i8, ptr %1, i64 100
  store i32 720, ptr %15, align 4, !tbaa !24
  %16 = tail call i32 @lv_tick_get() #7
  %17 = getelementptr inbounds nuw i8, ptr %1, i64 104
  store i32 %16, ptr %17, align 8, !tbaa !25
  %18 = load float, ptr %7, align 8, !tbaa !20
  %19 = getelementptr inbounds nuw i8, ptr %1, i64 108
  store float %18, ptr %19, align 4, !tbaa !26
  %20 = load i8, ptr %8, align 8
  %21 = and i8 %20, -17
  store i8 %21, ptr %8, align 8
  tail call void @lv_obj_add_flag(ptr noundef %1, i32 noundef 2) #7
  tail call void @lv_obj_remove_flag(ptr noundef %1, i32 noundef 784) #7
  tail call void @lv_obj_set_ext_click_area(ptr noundef %1, i32 noundef 13) #7
  ret void
}